target datalayout = "e-m:e-p270:32:32-p271:32:32-p272:64:64-i64:64-i128:128-f80:128-n8:16:32:64-S128"
target triple = "x86_64-unknown-linux-gnu"

%struct.IDEDMA = type { ptr, %struct.QEMUIOVector, ptr }
%struct.QEMUIOVector = type { ptr, i32, %union.anon }
%union.anon = type { %struct.anon }
%struct.anon = type { i32, %struct.iovec }
%struct.iovec = type { ptr, i64 }
%struct.IDEDMAOps = type { ptr, ptr, ptr, ptr, ptr, ptr, ptr, ptr, ptr, ptr }
%struct.IDEBus = type { %struct.BusState, ptr, ptr, [2 x %struct.IDEState], ptr, i32, i32, ptr, i8, i8, ptr, i32, i8, i64, i32, %struct.PortioList, %struct.PortioList, ptr }
%struct.BusState = type { %struct.Object, ptr, ptr, ptr, i32, i8, i8, i32, %union.BusChildHead, %struct.BusStateEntry, %struct.ResettableState }
%struct.Object = type { ptr, ptr, ptr, i32, ptr }
%union.BusChildHead = type { %struct.QTailQLink }
%struct.QTailQLink = type { ptr, ptr }
%struct.BusStateEntry = type { ptr, ptr }
%struct.ResettableState = type { i32, i8, i8 }
%struct.IDEState = type { ptr, i8, i32, i32, i32, i32, i32, i32, i32, i64, i32, i32, [512 x i8], i32, [21 x i8], [41 x i8], i64, i8, i8, i32, i8, i8, i8, i8, i8, i8, i8, i8, i8, i8, i8, i8, i8, ptr, [9 x i8], %struct.unreported_events, i8, i8, i8, i8, i8, i32, i32, i32, i32, i32, i32, %struct.BlockAcctCookie, ptr, %struct.QEMUIOVector, %struct.anon.1, i64, i32, %struct.QEMUSGList, i32, ptr, ptr, ptr, ptr, i32, i32, i32, i8, ptr, i32, i8, i32, ptr, i32, i32, i8, i8, i32, i8, ptr, i32 }
%struct.unreported_events = type { i8, i8 }
%struct.BlockAcctCookie = type { i64, i64, i32 }
%struct.anon.1 = type { ptr }
%struct.QEMUSGList = type { ptr, i32, i32, i64, ptr, ptr }
%struct.PortioList = type { ptr, ptr, ptr, i32, ptr, ptr, ptr, i8 }

; Function Attrs: nounwind sspstrong uwtable
define internal void @ide_cmd_done(ptr noundef %s) #0 {
entry:
  %s.addr = alloca ptr, align 8
  store ptr %s, ptr %s.addr, align 8
  %0 = load ptr, ptr %s.addr, align 8
  %bus = getelementptr inbounds %struct.IDEState, ptr %0, i32 0, i32 0
  %1 = load ptr, ptr %bus, align 8
  %dma = getelementptr inbounds %struct.IDEBus, ptr %1, i32 0, i32 7
  %2 = load ptr, ptr %dma, align 8
  %ops = getelementptr inbounds %struct.IDEDMA, ptr %2, i32 0, i32 0
  %3 = load ptr, ptr %ops, align 8
  %cmd_done = getelementptr inbounds %struct.IDEDMAOps, ptr %3, i32 0, i32 8
  %4 = load ptr, ptr %cmd_done, align 8
  %tobool = icmp ne ptr %4, null
  br i1 %tobool, label %if.then, label %if.end

if.then:                                          ; preds = %entry
  %5 = load ptr, ptr %s.addr, align 8
  %bus1 = getelementptr inbounds %struct.IDEState, ptr %5, i32 0, i32 0
  %6 = load ptr, ptr %bus1, align 8
  %dma2 = getelementptr inbounds %struct.IDEBus, ptr %6, i32 0, i32 7
  %7 = load ptr, ptr %dma2, align 8
  %ops3 = getelementptr inbounds %struct.IDEDMA, ptr %7, i32 0, i32 0
  %8 = load ptr, ptr %ops3, align 8
  %cmd_done4 = getelementptr inbounds %struct.IDEDMAOps, ptr %8, i32 0, i32 8
  %9 = load ptr, ptr %cmd_done4, align 8
  %10 = load ptr, ptr %s.addr, align 8
  %bus5 = getelementptr inbounds %struct.IDEState, ptr %10, i32 0, i32 0
  %11 = load ptr, ptr %bus5, align 8
  %dma6 = getelementptr inbounds %struct.IDEBus, ptr %11, i32 0, i32 7
  %12 = load ptr, ptr %dma6, align 8
  call void %9(ptr noundef %12)
  br label %if.end

if.end:                                           ; preds = %if.then, %entry
  ret void
}

; Function Attrs: nounwind sspstrong uwtable
define internal void @ide_transfer_halt(ptr noundef %s) #0 {
entry:
  %s.addr = alloca ptr, align 8
  store ptr %s, ptr %s.addr, align 8
  %0 = load ptr, ptr %s.addr, align 8
  %end_transfer_func = getelementptr inbounds %struct.IDEState, ptr %0, i32 0, i32 55
  store ptr @ide_transfer_stop, ptr %end_transfer_func, align 8
  %1 = load ptr, ptr %s.addr, align 8
  %io_buffer = getelementptr inbounds %struct.IDEState, ptr %1, i32 0, i32 58
  %2 = load ptr, ptr %io_buffer, align 8
  %3 = load ptr, ptr %s.addr, align 8
  %data_ptr = getelementptr inbounds %struct.IDEState, ptr %3, i32 0, i32 56
  store ptr %2, ptr %data_ptr, align 8
  %4 = load ptr, ptr %s.addr, align 8
  %io_buffer1 = getelementptr inbounds %struct.IDEState, ptr %4, i32 0, i32 58
  %5 = load ptr, ptr %io_buffer1, align 8
  %6 = load ptr, ptr %s.addr, align 8
  %data_end = getelementptr inbounds %struct.IDEState, ptr %6, i32 0, i32 57
  store ptr %5, ptr %data_end, align 8
  %7 = load ptr, ptr %s.addr, align 8
  %status = getelementptr inbounds %struct.IDEState, ptr %7, i32 0, i32 29
  %8 = load i8, ptr %status, align 1
  %conv = zext i8 %8 to i32
  %and = and i32 %conv, -9
  %conv2 = trunc i32 %and to i8
  store i8 %conv2, ptr %status, align 1
  ret void
}

; Function Attrs: nounwind sspstrong uwtable
define dso_local void @ide_transfer_stop(ptr noundef %s) #0 {
entry:
  %s.addr = alloca ptr, align 8
  store ptr %s, ptr %s.addr, align 8
  %0 = load ptr, ptr %s.addr, align 8
  call void @ide_transfer_halt(ptr noundef %0)
  %1 = load ptr, ptr %s.addr, align 8
  call void @ide_cmd_done(ptr noundef %1)
  ret void
}

; Function Attrs: nounwind sspstrong uwtable
define internal void @ide_cmd_lba48_transform(ptr noundef %s, i32 noundef %lba48) #0 {
entry:
  %s.addr = alloca ptr, align 8
  %lba48.addr = alloca i32, align 4
  %lo = alloca i32, align 4
  %hi = alloca i32, align 4
  store ptr %s, ptr %s.addr, align 8
  store i32 %lba48, ptr %lba48.addr, align 4
  %0 = load i32, ptr %lba48.addr, align 4
  %conv = trunc i32 %0 to i8
  %1 = load ptr, ptr %s.addr, align 8
  %lba481 = getelementptr inbounds %struct.IDEState, ptr %1, i32 0, i32 32
  store i8 %conv, ptr %lba481, align 4
  %2 = load ptr, ptr %s.addr, align 8
  %lba482 = getelementptr inbounds %struct.IDEState, ptr %2, i32 0, i32 32
  %3 = load i8, ptr %lba482, align 4
  %tobool = icmp ne i8 %3, 0
  br i1 %tobool, label %if.else, label %if.then

if.then:                                          ; preds = %entry
  %4 = load ptr, ptr %s.addr, align 8
  %nsector = getelementptr inbounds %struct.IDEState, ptr %4, i32 0, i32 19
  %5 = load i32, ptr %nsector, align 4
  %tobool3 = icmp ne i32 %5, 0
  br i1 %tobool3, label %if.end, label %if.then4

if.then4:                                         ; preds = %if.then
  %6 = load ptr, ptr %s.addr, align 8
  %nsector5 = getelementptr inbounds %struct.IDEState, ptr %6, i32 0, i32 19
  store i32 256, ptr %nsector5, align 4
  br label %if.end

if.end:                                           ; preds = %if.then4, %if.then
  br label %if.end17

if.else:                                          ; preds = %entry
  %7 = load ptr, ptr %s.addr, align 8
  %nsector6 = getelementptr inbounds %struct.IDEState, ptr %7, i32 0, i32 19
  %8 = load i32, ptr %nsector6, align 4
  %tobool7 = icmp ne i32 %8, 0
  br i1 %tobool7, label %if.else11, label %land.lhs.true

land.lhs.true:                                    ; preds = %if.else
  %9 = load ptr, ptr %s.addr, align 8
  %hob_nsector = getelementptr inbounds %struct.IDEState, ptr %9, i32 0, i32 24
  %10 = load i8, ptr %hob_nsector, align 4
  %tobool8 = icmp ne i8 %10, 0
  br i1 %tobool8, label %if.else11, label %if.then9

if.then9:                                         ; preds = %land.lhs.true
  %11 = load ptr, ptr %s.addr, align 8
  %nsector10 = getelementptr inbounds %struct.IDEState, ptr %11, i32 0, i32 19
  store i32 65536, ptr %nsector10, align 4
  br label %if.end16

if.else11:                                        ; preds = %land.lhs.true, %if.else
  %12 = load ptr, ptr %s.addr, align 8
  %nsector12 = getelementptr inbounds %struct.IDEState, ptr %12, i32 0, i32 19
  %13 = load i32, ptr %nsector12, align 4
  store i32 %13, ptr %lo, align 4
  %14 = load ptr, ptr %s.addr, align 8
  %hob_nsector13 = getelementptr inbounds %struct.IDEState, ptr %14, i32 0, i32 24
  %15 = load i8, ptr %hob_nsector13, align 4
  %conv14 = zext i8 %15 to i32
  store i32 %conv14, ptr %hi, align 4
  %16 = load i32, ptr %hi, align 4
  %shl = shl i32 %16, 8
  %17 = load i32, ptr %lo, align 4
  %or = or i32 %shl, %17
  %18 = load ptr, ptr %s.addr, align 8
  %nsector15 = getelementptr inbounds %struct.IDEState, ptr %18, i32 0, i32 19
  store i32 %or, ptr %nsector15, align 4
  br label %if.end16

if.end16:                                         ; preds = %if.else11, %if.then9
  br label %if.end17

if.end17:                                         ; preds = %if.end16, %if.end
  ret void
}

; Function Attrs: nounwind sspstrong uwtable
define dso_local void @ide_abort_command(ptr noundef %s) #0 {
entry:
  %s.addr = alloca ptr, align 8
  store ptr %s, ptr %s.addr, align 8
  %0 = load ptr, ptr %s.addr, align 8
  %status = getelementptr inbounds %struct.IDEState, ptr %0, i32 0, i32 29
  store i8 65, ptr %status, align 1
  %1 = load ptr, ptr %s.addr, align 8
  %error = getelementptr inbounds %struct.IDEState, ptr %1, i32 0, i32 18
  store i8 4, ptr %error, align 1
  %2 = load ptr, ptr %s.addr, align 8
  call void @ide_transfer_stop(ptr noundef %2)
  ret void
}

; Function Attrs: nounwind sspstrong uwtable
define internal void @ide_set_signature(ptr noundef %s) #0 {
entry:
  %s.addr = alloca ptr, align 8
  store ptr %s, ptr %s.addr, align 8
  %0 = load ptr, ptr %s.addr, align 8
  %select = getelementptr inbounds %struct.IDEState, ptr %0, i32 0, i32 28
  %1 = load i8, ptr %select, align 8
  %conv = zext i8 %1 to i32
  %and = and i32 %conv, -16
  %conv1 = trunc i32 %and to i8
  store i8 %conv1, ptr %select, align 8
  %2 = load ptr, ptr %s.addr, align 8
  %nsector = getelementptr inbounds %struct.IDEState, ptr %2, i32 0, i32 19
  store i32 1, ptr %nsector, align 4
  %3 = load ptr, ptr %s.addr, align 8
  %sector = getelementptr inbounds %struct.IDEState, ptr %3, i32 0, i32 20
  store i8 1, ptr %sector, align 8
  %4 = load ptr, ptr %s.addr, align 8
  %drive_kind = getelementptr inbounds %struct.IDEState, ptr %4, i32 0, i32 2
  %5 = load i32, ptr %drive_kind, align 4
  %cmp = icmp eq i32 %5, 1
  br i1 %cmp, label %if.then, label %if.else

if.then:                                          ; preds = %entry
  %6 = load ptr, ptr %s.addr, align 8
  %lcyl = getelementptr inbounds %struct.IDEState, ptr %6, i32 0, i32 21
  store i8 20, ptr %lcyl, align 1
  %7 = load ptr, ptr %s.addr, align 8
  %hcyl = getelementptr inbounds %struct.IDEState, ptr %7, i32 0, i32 22
  store i8 -21, ptr %hcyl, align 2
  br label %if.end9

if.else:                                          ; preds = %entry
  %8 = load ptr, ptr %s.addr, align 8
  %blk = getelementptr inbounds %struct.IDEState, ptr %8, i32 0, i32 33
  %9 = load ptr, ptr %blk, align 8
  %tobool = icmp ne ptr %9, null
  br i1 %tobool, label %if.then3, label %if.else6

if.then3:                                         ; preds = %if.else
  %10 = load ptr, ptr %s.addr, align 8
  %lcyl4 = getelementptr inbounds %struct.IDEState, ptr %10, i32 0, i32 21
  store i8 0, ptr %lcyl4, align 1
  %11 = load ptr, ptr %s.addr, align 8
  %hcyl5 = getelementptr inbounds %struct.IDEState, ptr %11, i32 0, i32 22
  store i8 0, ptr %hcyl5, align 2
  br label %if.end

if.else6:                                         ; preds = %if.else
  %12 = load ptr, ptr %s.addr, align 8
  %lcyl7 = getelementptr inbounds %struct.IDEState, ptr %12, i32 0, i32 21
  store i8 -1, ptr %lcyl7, align 1
  %13 = load ptr, ptr %s.addr, align 8
  %hcyl8 = getelementptr inbounds %struct.IDEState, ptr %13, i32 0, i32 22
  store i8 -1, ptr %hcyl8, align 2
  br label %if.end

if.end:                                           ; preds = %if.else6, %if.then3
  br label %if.end9

if.end9:                                          ; preds = %if.end, %if.then
  ret void
}

; Function Attrs: nounwind sspstrong uwtable
define internal zeroext i1 @cmd_read_pio(ptr noundef %s, i8 noundef zeroext %cmd) #0 {
entry:
  %retval = alloca i1, align 1
  %s.addr = alloca ptr, align 8
  %cmd.addr = alloca i8, align 1
  %lba48 = alloca i8, align 1
  store ptr %s, ptr %s.addr, align 8
  store i8 %cmd, ptr %cmd.addr, align 1
  %0 = load i8, ptr %cmd.addr, align 1
  %conv = zext i8 %0 to i32
  %cmp = icmp eq i32 %conv, 36
  %frombool = zext i1 %cmp to i8
  store i8 %frombool, ptr %lba48, align 1
  %1 = load ptr, ptr %s.addr, align 8
  %drive_kind = getelementptr inbounds %struct.IDEState, ptr %1, i32 0, i32 2
  %2 = load i32, ptr %drive_kind, align 4
  %cmp2 = icmp eq i32 %2, 1
  br i1 %cmp2, label %if.then, label %if.end

if.then:                                          ; preds = %entry
  %3 = load ptr, ptr %s.addr, align 8
  call void @ide_set_signature(ptr noundef %3)
  %4 = load ptr, ptr %s.addr, align 8
  call void @ide_abort_command(ptr noundef %4)
  store i1 true, ptr %retval, align 1
  br label %return

if.end:                                           ; preds = %entry
  %5 = load ptr, ptr %s.addr, align 8
  %blk = getelementptr inbounds %struct.IDEState, ptr %5, i32 0, i32 33
  %6 = load ptr, ptr %blk, align 8
  %tobool = icmp ne ptr %6, null
  br i1 %tobool, label %if.end5, label %if.then4

if.then4:                                         ; preds = %if.end
  %7 = load ptr, ptr %s.addr, align 8
  call void @ide_abort_command(ptr noundef %7)
  store i1 true, ptr %retval, align 1
  br label %return

if.end5:                                          ; preds = %if.end
  %8 = load ptr, ptr %s.addr, align 8
  %9 = load i8, ptr %lba48, align 1
  %tobool6 = trunc i8 %9 to i1
  %conv7 = zext i1 %tobool6 to i32
  call void @ide_cmd_lba48_transform(ptr noundef %8, i32 noundef %conv7)
  %10 = load ptr, ptr %s.addr, align 8
  %req_nb_sectors = getelementptr inbounds %struct.IDEState, ptr %10, i32 0, i32 54
  store i32 1, ptr %req_nb_sectors, align 8
  %11 = load ptr, ptr %s.addr, align 8
  call void @ide_sector_read(ptr noundef %11)
  store i1 false, ptr %retval, align 1
  br label %return

return:                                           ; preds = %if.end5, %if.then4, %if.then
  %12 = load i1, ptr %retval, align 1
  ret i1 %12
}