; Function Attrs: nounwind sspstrong uwtable
define internal noundef zeroext i1 @cmd_read_pio(ptr noundef initializes((649, 650), (665, 666)) %s, i8 noundef zeroext %cmd) #0 {
entry:
  %cmp = icmp eq i8 %cmd, 36
  %drive_kind = getelementptr inbounds nuw i8, ptr %s, i64 12
  %0 = load i32, ptr %drive_kind, align 4
  %cmp2 = icmp eq i32 %0, 1
  br i1 %cmp2, label %ide_set_signature.exit, label %if.end

ide_set_signature.exit:                           ; preds = %entry
  %select.i = getelementptr inbounds nuw i8, ptr %s, i64 664
  %1 = load i8, ptr %select.i, align 8
  %2 = and i8 %1, -16
  store i8 %2, ptr %select.i, align 8
  %nsector.i = getelementptr inbounds nuw i8, ptr %s, i64 652
  store i32 1, ptr %nsector.i, align 4
  %sector.i = getelementptr inbounds nuw i8, ptr %s, i64 656
  store i8 1, ptr %sector.i, align 8
  %lcyl.i = getelementptr inbounds nuw i8, ptr %s, i64 657
  store i8 20, ptr %lcyl.i, align 1
  %hcyl.i = getelementptr inbounds nuw i8, ptr %s, i64 658
  store i8 -21, ptr %hcyl.i, align 2
  %status.i = getelementptr inbounds nuw i8, ptr %s, i64 665
  %error.i = getelementptr inbounds nuw i8, ptr %s, i64 649
  store i8 4, ptr %error.i, align 1
  %end_transfer_func.i.i.i = getelementptr inbounds nuw i8, ptr %s, i64 864
  store ptr @ide_transfer_stop, ptr %end_transfer_func.i.i.i, align 8
  %io_buffer.i.i.i = getelementptr inbounds nuw i8, ptr %s, i64 888
  %3 = load ptr, ptr %io_buffer.i.i.i, align 8
  %data_ptr.i.i.i = getelementptr inbounds nuw i8, ptr %s, i64 872
  store ptr %3, ptr %data_ptr.i.i.i, align 8
  %data_end.i.i.i = getelementptr inbounds nuw i8, ptr %s, i64 880
  store ptr %3, ptr %data_end.i.i.i, align 8
  store i8 65, ptr %status.i, align 1
  %s.val.i.i = load ptr, ptr %s, align 8
  %4 = getelementptr i8, ptr %s.val.i.i, i64 2120
  %s.val.val.i.i = load ptr, ptr %4, align 8
  %5 = load ptr, ptr %s.val.val.i.i, align 8
  %cmd_done.i.i.i = getelementptr inbounds nuw i8, ptr %5, i64 64
  %6 = load ptr, ptr %cmd_done.i.i.i, align 8
  %tobool.not.i.i.i = icmp eq ptr %6, null
  br i1 %tobool.not.i.i.i, label %return, label %if.then.i.i.i

if.then.i.i.i:                                    ; preds = %ide_set_signature.exit
  tail call void %6(ptr noundef nonnull %s.val.val.i.i) #17
  br label %return

if.end:                                           ; preds = %entry
  %blk = getelementptr inbounds nuw i8, ptr %s, i64 672
  %7 = load ptr, ptr %blk, align 8
  %tobool.not = icmp eq ptr %7, null
  br i1 %tobool.not, label %if.then4, label %if.end5

if.then4:                                         ; preds = %if.end
  %status.i8 = getelementptr inbounds nuw i8, ptr %s, i64 665
  %error.i9 = getelementptr inbounds nuw i8, ptr %s, i64 649
  store i8 4, ptr %error.i9, align 1
  %end_transfer_func.i.i.i10 = getelementptr inbounds nuw i8, ptr %s, i64 864
  store ptr @ide_transfer_stop, ptr %end_transfer_func.i.i.i10, align 8
  %io_buffer.i.i.i11 = getelementptr inbounds nuw i8, ptr %s, i64 888
  %8 = load ptr, ptr %io_buffer.i.i.i11, align 8
  %data_ptr.i.i.i12 = getelementptr inbounds nuw i8, ptr %s, i64 872
  store ptr %8, ptr %data_ptr.i.i.i12, align 8
  %data_end.i.i.i13 = getelementptr inbounds nuw i8, ptr %s, i64 880
  store ptr %8, ptr %data_end.i.i.i13, align 8
  store i8 65, ptr %status.i8, align 1
  %s.val.i.i14 = load ptr, ptr %s, align 8
  %9 = getelementptr i8, ptr %s.val.i.i14, i64 2120
  %s.val.val.i.i15 = load ptr, ptr %9, align 8
  %10 = load ptr, ptr %s.val.val.i.i15, align 8
  %cmd_done.i.i.i16 = getelementptr inbounds nuw i8, ptr %10, i64 64
  %11 = load ptr, ptr %cmd_done.i.i.i16, align 8
  %tobool.not.i.i.i17 = icmp eq ptr %11, null
  br i1 %tobool.not.i.i.i17, label %return, label %if.then.i.i.i18

if.then.i.i.i18:                                  ; preds = %if.then4
  tail call void %11(ptr noundef nonnull %s.val.val.i.i15) #17
  br label %return

if.end5:                                          ; preds = %if.end
  %conv.i = zext i1 %cmp to i8
  %lba481.i = getelementptr inbounds nuw i8, ptr %s, i64 668
  store i8 %conv.i, ptr %lba481.i, align 4
  %nsector.i21 = getelementptr inbounds nuw i8, ptr %s, i64 652
  %12 = load i32, ptr %nsector.i21, align 4
  %tobool3.not.i = icmp eq i32 %12, 0
  br i1 %cmp, label %if.else.i22, label %if.then.i23

if.then.i23:                                      ; preds = %if.end5
  br i1 %tobool3.not.i, label %if.end17.sink.split.i, label %ide_cmd_lba48_transform.exit

if.else.i22:                                      ; preds = %if.end5
  %hob_nsector.i = getelementptr inbounds nuw i8, ptr %s, i64 660
  %13 = load i8, ptr %hob_nsector.i, align 4
  %tobool8.not.i = icmp eq i8 %13, 0
  %or.cond.i = select i1 %tobool3.not.i, i1 %tobool8.not.i, i1 false
  br i1 %or.cond.i, label %if.end17.sink.split.i, label %if.else11.i

if.else11.i:                                      ; preds = %if.else.i22
  %conv14.i = zext i8 %13 to i32
  %shl.i = shl nuw nsw i32 %conv14.i, 8
  %or.i = or i32 %shl.i, %12
  br label %if.end17.sink.split.i

if.end17.sink.split.i:                            ; preds = %if.else11.i, %if.else.i22, %if.then.i23
  %.sink.i = phi i32 [ %or.i, %if.else11.i ], [ 256, %if.then.i23 ], [ 65536, %if.else.i22 ]
  store i32 %.sink.i, ptr %nsector.i21, align 4
  br label %ide_cmd_lba48_transform.exit

ide_cmd_lba48_transform.exit:                     ; preds = %if.then.i23, %if.end17.sink.split.i
  %req_nb_sectors = getelementptr inbounds nuw i8, ptr %s, i64 856
  store i32 1, ptr %req_nb_sectors, align 8
  tail call void @ide_sector_read(ptr noundef nonnull %s)
  br label %return

return:                                           ; preds = %if.then.i.i.i18, %if.then4, %if.then.i.i.i, %ide_set_signature.exit, %ide_cmd_lba48_transform.exit
  %retval.0 = phi i1 [ false, %ide_cmd_lba48_transform.exit ], [ true, %ide_set_signature.exit ], [ true, %if.then.i.i.i ], [ true, %if.then4 ], [ true, %if.then.i.i.i18 ]
  ret i1 %retval.0
}